; Function Attrs: nounwind uwtable
define i32 @ossl_param_build_set_utf8_string(ptr noundef %0, ptr noundef %1, ptr noundef %2, ptr noundef %3) local_unnamed_addr #0 {
  %.not = icmp eq ptr %0, null
  br i1 %.not, label %7, label %5

5:                                                ; preds = %4
  %6 = tail call i32 @OSSL_PARAM_BLD_push_utf8_string(ptr noundef nonnull %0, ptr noundef %2, ptr noundef %3, i64 noundef 0) #2
  br label %11

7:                                                ; preds = %4
  %8 = tail call ptr @OSSL_PARAM_locate(ptr noundef %1, ptr noundef %2) #2
  %.not11 = icmp eq ptr %8, null
  br i1 %.not11, label %11, label %9

9:                                                ; preds = %7
  %10 = tail call i32 @OSSL_PARAM_set_utf8_string(ptr noundef nonnull %8, ptr noundef %3) #2
  br label %11

11:                                               ; preds = %7, %9, %5
  %.0 = phi i32 [ %6, %5 ], [ %10, %9 ], [ 1, %7 ]
  ret i32 %.0
}